Certificate:
    Data:
        Version: 3 (0x2)
        Serial Number:
            65:13:64:60:4d:42:19:c7:fd:97:94:49:12:59:19:9a:f1:8a:23:cf
        Signature Algorithm: sha256WithRSAEncryption
        Issuer: CN=localhost
        Validity
            Not Before: Jul 22 04:50:14 2025 GMT
            Not After : Jul 22 04:50:14 2026 GMT
        Subject: CN=172.17.0.2
        Subject Public Key Info:
            Public Key Algorithm: rsaEncryption
                Public-Key: (4096 bit)
                Modulus:
                    00:b5:da:7a:ba:ea:24:9c:60:fe:c6:a6:af:0f:57:
                    a8:bb:fa:52:4e:43:5b:69:5a:91:4c:8e:4b:7a:0d:
                    3c:79:20:5b:48:78:fe:83:6c:7f:f4:a3:15:88:2f:
                    0e:6f:bb:76:99:42:4b:f0:fc:63:1c:05:6a:87:c5:
                    55:5d:6e:c1:09:51:a8:b6:fb:2b:f6:28:7f:71:ab:
                    58:3e:f0:09:e4:49:05:42:d3:1c:cd:7d:66:6d:02:
                    73:7e:a6:f3:45:09:9a:b1:0a:17:f2:5a:22:e6:34:
                    d4:5f:6a:ef:96:1a:b3:bb:87:27:e5:40:7e:bd:86:
                    f6:0b:14:6f:87:9d:62:e2:e1:89:87:5d:95:fc:b4:
                    9b:37:8e:6d:f9:c7:4c:09:e9:79:b4:3d:c1:c7:f4:
                    77:44:bc:7d:f4:97:42:69:9e:4a:2b:1a:70:18:54:
                    44:ae:92:28:61:b5:b7:92:9e:0b:05:b6:15:81:57:
                    1a:50:02:4a:5f:96:b8:84:9f:82:75:c4:54:28:f5:
                    b3:4b:cf:ed:35:2a:33:ea:b7:58:12:fc:a9:ca:d6:
                    27:bb:79:b3:c9:b2:53:65:c0:d9:c2:6f:50:62:e2:
                    21:91:93:84:2b:c2:75:1c:e6:4c:b5:b9:aa:05:cd:
                    dc:b7:d7:96:80:de:3c:b2:1a:a2:42:37:34:60:9a:
                    5c:aa:98:36:f1:2a:f8:fe:1f:bf:1e:75:21:46:08:
                    3b:8b:ee:ff:0a:9e:09:e8:5e:45:10:6d:d8:09:68:
                    67:e2:ac:01:f7:06:37:25:9e:27:6e:6c:ec:84:51:
                    c7:3e:41:b4:b9:d4:ba:d9:0b:b3:94:af:e3:d8:16:
                    6a:fd:3b:cb:df:26:6c:f0:a2:28:52:15:ad:62:16:
                    2a:06:13:eb:71:14:ba:b5:50:e8:9b:a4:07:2c:73:
                    95:df:13:73:29:b0:a3:38:75:57:2b:33:52:40:0a:
                    52:ed:45:10:02:8f:fd:69:88:31:26:02:56:c6:08:
                    85:c6:85:a8:3c:ba:81:ba:4a:23:e2:7a:4b:92:e3:
                    2d:66:2f:36:ea:3a:7b:81:3d:cb:3d:97:f4:a3:7d:
                    8b:23:2b:2f:9e:93:14:c1:36:ac:f4:1d:28:bd:b9:
                    cb:4f:ce:09:36:d6:ea:b0:f2:8f:49:96:21:cf:00:
                    2f:f2:02:29:6e:87:a8:15:fc:f8:3a:87:95:37:6f:
                    2d:a7:3a:b8:ba:d3:95:1a:ad:0c:89:9c:bc:1b:47:
                    2a:a8:f6:fc:78:b2:0d:55:5e:4f:81:df:a0:96:cd:
                    6d:fe:14:27:f6:e6:0c:6b:42:22:6f:4e:01:c9:6c:
                    59:ef:9d:38:0b:b2:66:6f:3f:f5:33:a4:19:34:23:
                    83:36:a7
                Exponent: 65537 (0x10001)
        X509v3 extensions:
            X509v3 Subject Key Identifier: 
                BB:E8:B4:F2:41:BB:55:E0:8C:F1:DF:69:0E:49:67:B3:79:B4:E1:A8
            X509v3 Authority Key Identifier: 
                74:D4:35:BF:3E:80:DE:24:1C:AA:90:08:43:2E:D8:8F:98:CE:8B:5D
    Signature Algorithm: sha256WithRSAEncryption
    Signature Value:
        89:3f:33:06:62:97:c6:79:82:da:a9:79:6f:52:78:f5:ea:d3:
        36:5c:4b:7b:f9:46:cf:25:31:35:3d:cf:40:b1:5a:e4:6f:1d:
        34:25:14:d7:09:36:89:77:8b:72:6e:02:33:61:07:73:22:03:
        c5:ce:26:50:8c:c3:3a:52:d6:2a:da:f0:ef:0e:aa:eb:1f:4f:
        7e:0a:ec:b3:3c:9a:bb:46:50:67:3a:fe:69:0c:c3:09:c8:4d:
        c5:9a:3b:47:d0:0a:87:09:e7:be:ac:90:40:9e:e8:07:6a:40:
        8e:dc:5d:1b:c7:53:99:34:ab:e1:d1:3b:42:dc:40:14:9b:2b:
        0a:df:19:27:72:2d:17:ed:dd:02:5b:33:c8:46:03:59:57:6e:
        00:0f:e1:f8:8f:e5:48:4b:c7:01:a0:d7:ab:c9:53:94:59:db:
        44:e3:98:61:b5:29:dc:11:56:54:99:c8:1d:c1:15:79:b4:33:
        60:32:dc:8b:d2:1d:2e:d9:31:6d:a9:96:8f:28:43:7b:49:c1:
        5f:b1:ae:b4:03:7c:ba:7f:92:9c:02:23:f8:13:95:d6:f2:b2:
        20:29:4b:34:dd:6d:b8:dd:ad:6b:86:b0:d3:2d:5a:1c:3c:4a:
        a7:9e:45:41:87:fc:1e:29:ce:5e:8d:81:1f:4b:7a:8e:a3:31:
        05:86:a4:0a:77:1e:49:1e:0e:7f:54:ee:b1:de:69:66:e2:46:
        ed:7b:68:d4:85:65:cb:53:2e:6b:c6:35:39:eb:4c:14:16:b7:
        0d:3f:e5:4a:36:23:e9:6b:1f:8b:bd:6e:84:2c:b0:e1:42:8d:
        58:ad:12:1e:f7:c4:24:e8:9d:aa:9d:d3:1f:52:cf:96:6a:90:
        15:d5:76:78:23:23:f3:ae:4a:3a:86:0a:5e:eb:d7:0f:90:cf:
        1e:c0:c1:47:e7:94:d3:42:ee:86:bb:17:1c:e5:e2:9b:ea:b3:
        27:c0:0a:8e:1b:bc:64:f0:9a:2d:0f:7a:77:82:bb:77:f6:21:
        ea:86:c7:8c:75:95:3d:e2:3a:69:2f:6c:e5:cc:44:d4:cd:5a:
        98:42:7f:86:51:1d:08:7b:60:08:06:ee:68:31:93:a1:e0:64:
        a7:ab:02:26:77:3c:dc:bb:3d:92:6d:50:55:91:14:fb:e7:01:
        99:90:b3:10:da:dc:fa:da:f3:78:16:df:d2:26:89:dd:c4:fc:
        9d:bc:e9:03:3d:fd:c7:68:10:f7:3e:85:4d:d1:d8:66:8d:52:
        59:cb:bb:42:ea:94:36:44:c4:36:62:66:f0:c5:8f:e8:04:8e:
        b0:b1:c2:48:c3:12:0f:cc:87:62:fc:8b:c8:1b:ca:9f:56:3a:
        12:b7:4a:50:41:73:17:f7
-----BEGIN CERTIFICATE-----
MIIE+TCCAuGgAwIBAgIUZRNkYE1CGcf9l5RJElkZmvGKI88wDQYJKoZIhvcNAQEL
BQAwFDESMBAGA1UEAwwJbG9jYWxob3N0MB4XDTI1MDcyMjA0NTAxNFoXDTI2MDcy
MjA0NTAxNFowFTETMBEGA1UEAwwKMTcyLjE3LjAuMjCCAiIwDQYJKoZIhvcNAQEB
BQADggIPADCCAgoCggIBALXaerrqJJxg/samrw9XqLv6Uk5DW2lakUyOS3oNPHkg
W0h4/oNsf/SjFYgvDm+7dplCS/D8YxwFaofFVV1uwQlRqLb7K/Yof3GrWD7wCeRJ
BULTHM19Zm0Cc36m80UJmrEKF/JaIuY01F9q75Yas7uHJ+VAfr2G9gsUb4edYuLh
iYddlfy0mzeObfnHTAnpebQ9wcf0d0S8ffSXQmmeSisacBhURK6SKGG1t5KeCwW2
FYFXGlACSl+WuISfgnXEVCj1s0vP7TUqM+q3WBL8qcrWJ7t5s8myU2XA2cJvUGLi
IZGThCvCdRzmTLW5qgXN3LfXloDePLIaokI3NGCaXKqYNvEq+P4fvx51IUYIO4vu
/wqeCeheRRBt2AloZ+KsAfcGNyWeJ25s7IRRxz5BtLnUutkLs5Sv49gWav07y98m
bPCiKFIVrWIWKgYT63EUurVQ6JukByxzld8Tcymwozh1VyszUkAKUu1FEAKP/WmI
MSYCVsYIhcaFqDy6gbpKI+J6S5LjLWYvNuo6e4E9yz2X9KN9iyMrL56TFME2rPQd
KL25y0/OCTbW6rDyj0mWIc8AL/ICKW6HqBX8+DqHlTdvLac6uLrTlRqtDImcvBtH
Kqj2/HiyDVVeT4HfoJbNbf4UJ/bmDGtCIm9OAclsWe+dOAuyZm8/9TOkGTQjgzan
AgMBAAGjQjBAMB0GA1UdDgQWBBS76LTyQbtV4Izx32kOSWezebThqDAfBgNVHSME
GDAWgBR01DW/PoDeJByqkAhDLtiPmM6LXTANBgkqhkiG9w0BAQsFAAOCAgEAiT8z
BmKXxnmC2ql5b1J49erTNlxLe/lGzyUxNT3PQLFa5G8dNCUU1wk2iXeLcm4CM2EH
cyIDxc4mUIzDOlLWKtrw7w6q6x9Pfgrsszyau0ZQZzr+aQzDCchNxZo7R9AKhwnn
vqyQQJ7oB2pAjtxdG8dTmTSr4dE7QtxAFJsrCt8ZJ3ItF+3dAlszyEYDWVduAA/h
+I/lSEvHAaDXq8lTlFnbROOYYbUp3BFWVJnIHcEVebQzYDLci9IdLtkxbamWjyhD
e0nBX7GutAN8un+SnAIj+BOV1vKyIClLNN1tuN2ta4aw0y1aHDxKp55FQYf8HinO
Xo2BH0t6jqMxBYakCnceSR4Of1Tusd5pZuJG7Xto1IVly1Mua8Y1OetMFBa3DT/l
SjYj6Wsfi71uhCyw4UKNWK0SHvfEJOidqp3TH1LPlmqQFdV2eCMj865KOoYKXuvX
D5DPHsDBR+eU00LuhrsXHOXim+qzJ8AKjhu8ZPCaLQ96d4K7d/Yh6obHjHWVPeI6
aS9s5cxE1M1amEJ/hlEdCHtgCAbuaDGToeBkp6sCJnc83Ls9km1QVZEU++cBmZCz
ENrc+trzeBbf0iaJ3cT8nbzpAz39x2gQ9z6FTdHYZo1SWcu7QuqUNkTENmJm8MWP
6ASOsLHCSMMSD8yHYvyLyBvKn1Y6ErdKUEFzF/c=
-----END CERTIFICATE-----
