Certificate:
    Data:
        Version: 3 (0x2)
        Serial Number:
            65:13:64:60:4d:42:19:c7:fd:97:94:49:12:59:19:9a:f1:8a:23:ce
        Signature Algorithm: sha256WithRSAEncryption
        Issuer: CN=localhost
        Validity
            Not Before: Jul 22 04:42:28 2025 GMT
            Not After : Jul 22 04:42:28 2026 GMT
        Subject: CN=localhost
        Subject Public Key Info:
            Public Key Algorithm: rsaEncryption
                Public-Key: (4096 bit)
                Modulus:
                    00:97:30:df:ed:8f:91:2d:51:df:60:dd:2e:64:63:
                    1b:ee:f2:7d:8d:0e:fe:aa:38:ff:c5:18:95:37:c9:
                    cd:0b:68:03:6a:34:bb:90:79:fe:fd:c8:0e:6f:ff:
                    d1:0f:35:ef:7e:44:55:b4:2b:0e:0d:ee:ac:81:0b:
                    36:06:22:26:4b:a0:47:ef:00:39:f1:0b:7f:77:c1:
                    a9:a4:5a:1f:0f:47:ab:b3:3b:8b:67:3e:28:9f:4c:
                    6b:90:12:82:1c:aa:57:89:08:08:86:2d:ef:fb:92:
                    b0:4e:30:70:2b:72:d2:13:d3:25:3a:28:68:42:ac:
                    61:8f:a1:95:d4:82:ed:bb:06:37:65:67:4e:84:36:
                    38:a0:61:f8:d0:b3:e2:2d:b6:9e:2b:2a:93:fb:78:
                    18:b6:7e:4c:10:5c:c4:23:6b:f2:e9:a5:29:41:d3:
                    f1:52:7a:61:a4:93:cf:c1:32:b6:c1:bb:a8:1e:80:
                    7b:5c:f7:aa:a1:94:3e:0c:0b:23:0e:5b:53:b2:7a:
                    50:d0:6e:55:13:a0:7a:0d:b3:f0:5e:b2:9b:f4:f4:
                    61:52:96:41:f3:35:0c:3d:78:96:3c:e1:fd:f4:cc:
                    88:09:45:d8:52:d1:a2:1e:eb:46:cb:8c:41:d3:c0:
                    63:8b:a5:f8:87:f2:57:38:42:d0:a3:28:a7:29:0f:
                    4b:dc:7d:fd:a1:31:0d:54:47:81:0b:c6:c6:84:c4:
                    ae:fb:f6:06:43:82:12:5e:25:d9:73:a0:17:8f:0f:
                    cd:0b:aa:61:45:51:84:b4:9c:2a:be:c3:30:dc:8a:
                    0c:4b:ea:4f:37:97:f0:86:1a:e4:79:81:bc:8c:a9:
                    f7:62:12:6e:0a:84:ab:aa:9b:c2:5f:03:96:db:8f:
                    81:d1:08:67:61:89:e4:3b:b6:15:d6:ce:21:be:1d:
                    32:25:ef:d7:43:0b:82:e3:ed:37:a5:29:1a:f1:fb:
                    48:ab:34:e9:41:53:a4:d6:73:b9:b1:d5:78:81:c2:
                    2c:92:4f:7d:b3:fc:d1:dc:69:1a:b2:04:90:b6:80:
                    ad:f2:65:20:db:d1:1a:15:f4:69:a1:0b:52:65:a3:
                    61:5c:9d:60:17:39:7a:3a:12:3a:3d:20:ec:f0:df:
                    1d:bd:16:45:1c:8a:6a:26:10:b7:04:da:2a:8f:78:
                    2a:cc:b8:8d:f2:8e:a8:34:7f:1c:77:79:54:c4:eb:
                    b5:08:98:ff:50:a7:5d:2e:74:ad:9a:3c:72:c7:9a:
                    a5:02:a2:8e:bd:8d:11:47:ce:e7:2d:e9:77:29:3f:
                    84:89:21:f1:a0:cb:66:96:52:55:a2:0a:00:21:fa:
                    f0:f0:f2:24:43:77:94:0a:89:4c:8d:ef:9d:c4:77:
                    7f:b0:6f
                Exponent: 65537 (0x10001)
        X509v3 extensions:
            X509v3 Subject Key Identifier: 
                07:E8:51:D2:66:4D:57:05:BD:5A:7D:50:2B:41:4D:C8:48:33:02:30
            X509v3 Authority Key Identifier: 
                74:D4:35:BF:3E:80:DE:24:1C:AA:90:08:43:2E:D8:8F:98:CE:8B:5D
    Signature Algorithm: sha256WithRSAEncryption
    Signature Value:
        d0:ac:e5:5e:f8:1b:ec:fd:14:00:ec:ea:b1:bc:86:c0:4e:bb:
        5d:6a:63:c9:9b:bc:a8:32:b4:d2:26:51:53:0b:db:fb:1c:92:
        e5:e2:8f:f7:c4:5f:ed:fb:fb:a6:3d:7d:33:c8:95:be:33:22:
        07:42:9e:09:53:f0:3f:2c:a3:ff:d0:e5:13:ea:7f:0f:62:2c:
        e2:94:34:cb:20:98:d4:c6:3f:65:6f:ac:79:74:f2:b1:49:2b:
        b7:13:36:ae:fd:89:45:6f:ed:9f:e0:2b:f6:30:70:cd:36:a3:
        4d:18:d0:ef:cc:6b:20:ae:02:52:91:ec:c9:16:44:18:23:56:
        98:e0:b4:e7:dc:66:96:23:7e:c3:6d:99:b8:39:91:60:18:fe:
        f5:e9:2a:ad:24:23:1b:72:28:50:c1:30:79:90:cf:3b:f3:90:
        ec:e4:d0:01:85:73:a1:e8:25:8d:8d:75:06:d4:5e:a6:99:38:
        0a:6d:e5:f7:43:8a:51:45:32:b5:f6:6a:56:5a:b3:89:d0:62:
        19:89:20:c1:0f:52:37:9b:14:ad:f4:70:a7:15:1a:de:3f:49:
        b5:28:f3:2a:89:66:06:86:20:46:74:09:d9:22:66:ff:d3:cf:
        df:b1:c7:02:89:52:bf:d2:f8:7d:03:96:85:b4:bb:b0:be:f7:
        3b:68:71:84:68:85:fc:1f:cf:0a:2f:9f:6b:e1:ae:e4:61:e3:
        ac:b6:17:5b:45:9e:3f:6d:6f:a1:ec:85:1b:7c:05:0b:40:b5:
        f2:9b:d4:d6:d0:bf:e2:6c:1d:d3:89:c6:43:5a:2a:e9:70:05:
        53:06:e3:04:a7:fb:45:0f:70:11:17:76:d1:aa:d6:06:5d:8f:
        5f:5b:c5:a3:b1:9f:71:19:a2:9c:7d:06:14:4f:1f:ab:1a:c2:
        0f:16:b2:cf:54:ef:d9:91:81:8b:01:62:7e:2d:57:cc:35:51:
        11:db:91:b2:8d:84:e5:d6:33:73:8a:43:1f:04:e2:00:b7:24:
        2d:ed:7d:6e:62:74:5c:b8:a4:a6:19:b0:f4:a6:4c:fd:dd:4d:
        3e:97:6c:8f:6a:c4:96:82:53:e1:33:8c:4d:0b:b4:47:0e:8f:
        17:06:13:83:65:ae:9f:55:c8:a8:d9:8e:2b:16:1d:19:54:ff:
        3d:1e:a1:09:6a:e2:0d:bb:62:a2:c8:c9:e2:3f:d1:69:d0:7e:
        a6:47:15:da:8d:f9:8c:f0:31:63:58:f9:4a:4d:d7:60:57:06:
        a7:7b:91:80:ef:46:53:95:5f:d8:23:8e:f0:80:ee:ee:9f:d6:
        0d:8f:4f:76:53:f0:33:30:ef:3e:12:81:23:9d:25:82:fa:ed:
        d5:a0:3a:69:77:71:c9:f5
-----BEGIN CERTIFICATE-----
MIIE+DCCAuCgAwIBAgIUZRNkYE1CGcf9l5RJElkZmvGKI84wDQYJKoZIhvcNAQEL
BQAwFDESMBAGA1UEAwwJbG9jYWxob3N0MB4XDTI1MDcyMjA0NDIyOFoXDTI2MDcy
MjA0NDIyOFowFDESMBAGA1UEAwwJbG9jYWxob3N0MIICIjANBgkqhkiG9w0BAQEF
AAOCAg8AMIICCgKCAgEAlzDf7Y+RLVHfYN0uZGMb7vJ9jQ7+qjj/xRiVN8nNC2gD
ajS7kHn+/cgOb//RDzXvfkRVtCsODe6sgQs2BiImS6BH7wA58Qt/d8GppFofD0er
szuLZz4on0xrkBKCHKpXiQgIhi3v+5KwTjBwK3LSE9MlOihoQqxhj6GV1ILtuwY3
ZWdOhDY4oGH40LPiLbaeKyqT+3gYtn5MEFzEI2vy6aUpQdPxUnphpJPPwTK2wbuo
HoB7XPeqoZQ+DAsjDltTsnpQ0G5VE6B6DbPwXrKb9PRhUpZB8zUMPXiWPOH99MyI
CUXYUtGiHutGy4xB08Bji6X4h/JXOELQoyinKQ9L3H39oTENVEeBC8bGhMSu+/YG
Q4ISXiXZc6AXjw/NC6phRVGEtJwqvsMw3IoMS+pPN5fwhhrkeYG8jKn3YhJuCoSr
qpvCXwOW24+B0QhnYYnkO7YV1s4hvh0yJe/XQwuC4+03pSka8ftIqzTpQVOk1nO5
sdV4gcIskk99s/zR3GkasgSQtoCt8mUg29EaFfRpoQtSZaNhXJ1gFzl6OhI6PSDs
8N8dvRZFHIpqJhC3BNoqj3gqzLiN8o6oNH8cd3lUxOu1CJj/UKddLnStmjxyx5ql
AqKOvY0RR87nLel3KT+EiSHxoMtmllJVogoAIfrw8PIkQ3eUColMje+dxHd/sG8C
AwEAAaNCMEAwHQYDVR0OBBYEFAfoUdJmTVcFvVp9UCtBTchIMwIwMB8GA1UdIwQY
MBaAFHTUNb8+gN4kHKqQCEMu2I+YzotdMA0GCSqGSIb3DQEBCwUAA4ICAQDQrOVe
+Bvs/RQA7OqxvIbATrtdamPJm7yoMrTSJlFTC9v7HJLl4o/3xF/t+/umPX0zyJW+
MyIHQp4JU/A/LKP/0OUT6n8PYizilDTLIJjUxj9lb6x5dPKxSSu3Ezau/YlFb+2f
4Cv2MHDNNqNNGNDvzGsgrgJSkezJFkQYI1aY4LTn3GaWI37DbZm4OZFgGP716Sqt
JCMbcihQwTB5kM8785Ds5NABhXOh6CWNjXUG1F6mmTgKbeX3Q4pRRTK19mpWWrOJ
0GIZiSDBD1I3mxSt9HCnFRreP0m1KPMqiWYGhiBGdAnZImb/08/fsccCiVK/0vh9
A5aFtLuwvvc7aHGEaIX8H88KL59r4a7kYeOsthdbRZ4/bW+h7IUbfAULQLXym9TW
0L/ibB3TicZDWirpcAVTBuMEp/tFD3ARF3bRqtYGXY9fW8WjsZ9xGaKcfQYUTx+r
GsIPFrLPVO/ZkYGLAWJ+LVfMNVER25GyjYTl1jNzikMfBOIAtyQt7X1uYnRcuKSm
GbD0pkz93U0+l2yPasSWglPhM4xNC7RHDo8XBhODZa6fVcio2Y4rFh0ZVP89HqEJ
auINu2KiyMniP9Fp0H6mRxXajfmM8DFjWPlKTddgVwane5GA70ZTlV/YI47wgO7u
n9YNj092U/AzMO8+EoEjnSWC+u3VoDppd3HJ9Q==
-----END CERTIFICATE-----
