Certificate Request:
    Data:
        Version: 1 (0x0)
        Subject: CN=localhost
        Subject Public Key Info:
            Public Key Algorithm: rsaEncryption
                Public-Key: (4096 bit)
                Modulus:
                    00:97:30:df:ed:8f:91:2d:51:df:60:dd:2e:64:63:
                    1b:ee:f2:7d:8d:0e:fe:aa:38:ff:c5:18:95:37:c9:
                    cd:0b:68:03:6a:34:bb:90:79:fe:fd:c8:0e:6f:ff:
                    d1:0f:35:ef:7e:44:55:b4:2b:0e:0d:ee:ac:81:0b:
                    36:06:22:26:4b:a0:47:ef:00:39:f1:0b:7f:77:c1:
                    a9:a4:5a:1f:0f:47:ab:b3:3b:8b:67:3e:28:9f:4c:
                    6b:90:12:82:1c:aa:57:89:08:08:86:2d:ef:fb:92:
                    b0:4e:30:70:2b:72:d2:13:d3:25:3a:28:68:42:ac:
                    61:8f:a1:95:d4:82:ed:bb:06:37:65:67:4e:84:36:
                    38:a0:61:f8:d0:b3:e2:2d:b6:9e:2b:2a:93:fb:78:
                    18:b6:7e:4c:10:5c:c4:23:6b:f2:e9:a5:29:41:d3:
                    f1:52:7a:61:a4:93:cf:c1:32:b6:c1:bb:a8:1e:80:
                    7b:5c:f7:aa:a1:94:3e:0c:0b:23:0e:5b:53:b2:7a:
                    50:d0:6e:55:13:a0:7a:0d:b3:f0:5e:b2:9b:f4:f4:
                    61:52:96:41:f3:35:0c:3d:78:96:3c:e1:fd:f4:cc:
                    88:09:45:d8:52:d1:a2:1e:eb:46:cb:8c:41:d3:c0:
                    63:8b:a5:f8:87:f2:57:38:42:d0:a3:28:a7:29:0f:
                    4b:dc:7d:fd:a1:31:0d:54:47:81:0b:c6:c6:84:c4:
                    ae:fb:f6:06:43:82:12:5e:25:d9:73:a0:17:8f:0f:
                    cd:0b:aa:61:45:51:84:b4:9c:2a:be:c3:30:dc:8a:
                    0c:4b:ea:4f:37:97:f0:86:1a:e4:79:81:bc:8c:a9:
                    f7:62:12:6e:0a:84:ab:aa:9b:c2:5f:03:96:db:8f:
                    81:d1:08:67:61:89:e4:3b:b6:15:d6:ce:21:be:1d:
                    32:25:ef:d7:43:0b:82:e3:ed:37:a5:29:1a:f1:fb:
                    48:ab:34:e9:41:53:a4:d6:73:b9:b1:d5:78:81:c2:
                    2c:92:4f:7d:b3:fc:d1:dc:69:1a:b2:04:90:b6:80:
                    ad:f2:65:20:db:d1:1a:15:f4:69:a1:0b:52:65:a3:
                    61:5c:9d:60:17:39:7a:3a:12:3a:3d:20:ec:f0:df:
                    1d:bd:16:45:1c:8a:6a:26:10:b7:04:da:2a:8f:78:
                    2a:cc:b8:8d:f2:8e:a8:34:7f:1c:77:79:54:c4:eb:
                    b5:08:98:ff:50:a7:5d:2e:74:ad:9a:3c:72:c7:9a:
                    a5:02:a2:8e:bd:8d:11:47:ce:e7:2d:e9:77:29:3f:
                    84:89:21:f1:a0:cb:66:96:52:55:a2:0a:00:21:fa:
                    f0:f0:f2:24:43:77:94:0a:89:4c:8d:ef:9d:c4:77:
                    7f:b0:6f
                Exponent: 65537 (0x10001)
        Attributes:
            (none)
            Requested Extensions:
    Signature Algorithm: sha256WithRSAEncryption
    Signature Value:
        84:73:98:28:e5:90:98:67:4b:c8:2f:11:85:23:66:d5:f9:02:
        58:ae:a8:24:e1:c1:22:c5:5e:03:55:92:1c:1c:f7:6b:ad:0c:
        7e:b8:df:c5:0e:4b:32:05:e1:2c:03:01:3e:62:e8:96:8d:f9:
        bb:b9:8e:b0:a4:62:e9:85:43:e2:19:4a:c7:67:21:7e:29:3a:
        fb:9b:86:6f:77:11:21:5a:60:11:47:7b:78:42:13:d4:cc:57:
        ae:2c:23:99:c7:b8:4d:fc:26:7b:88:6a:2a:8c:39:da:b2:99:
        0f:aa:99:19:7f:f1:70:07:f0:b2:98:a9:27:1d:ed:c8:76:f3:
        f1:60:52:e1:02:c5:1f:3e:ea:6e:1e:84:32:d6:71:27:2f:62:
        ae:6b:db:f5:56:c3:3b:1a:3a:53:c0:e1:52:d6:f6:67:db:fc:
        26:22:99:84:d3:a5:15:d5:7e:c7:46:be:6b:58:2b:55:18:8b:
        e3:38:f9:7b:1b:8e:29:4a:4d:25:31:30:7f:23:9d:65:b5:01:
        07:71:ab:81:aa:f9:82:e8:91:b6:27:51:be:03:4e:0e:72:76:
        33:a8:9c:3e:d3:1b:e1:16:02:8d:9d:20:60:29:2f:66:7f:82:
        03:64:bb:63:4d:e2:a3:c0:29:c7:62:76:da:61:7b:5e:1e:93:
        77:fc:40:f2:48:ff:7a:ad:e6:fb:b2:e2:0f:58:b9:9d:19:2e:
        36:11:66:90:80:2f:b9:35:72:7c:3a:d7:40:b9:d8:bb:98:13:
        9b:01:b7:0d:86:29:7e:f4:ed:2b:f0:d7:ee:c8:40:de:98:13:
        59:ba:e4:ec:db:ca:42:b4:40:6d:97:3d:26:ed:9f:be:28:ae:
        68:b8:db:a6:94:68:b5:2e:ac:03:a5:6f:f0:9d:f4:a8:4b:9b:
        15:15:66:18:d8:38:8f:a7:c0:b1:47:21:ec:84:07:ad:2d:e0:
        e6:d3:27:73:64:e8:c6:13:ca:92:b8:af:af:fd:2c:02:e8:31:
        40:e2:a6:79:17:e1:11:20:11:35:38:e7:75:1f:15:5d:a5:38:
        6c:6a:87:72:4f:7d:64:32:29:04:37:40:38:00:4e:53:bc:18:
        23:49:13:e7:88:ca:b6:8e:87:69:b6:83:a8:76:bb:91:fa:7c:
        bb:27:9e:1f:68:a9:08:1f:4e:90:4d:25:b7:12:09:04:c2:ec:
        eb:e8:4f:8b:97:03:aa:ff:89:f7:72:9f:7a:e1:06:52:98:69:
        5f:29:81:70:ae:09:3f:d6:0b:2b:fd:b0:7f:69:63:d4:77:16:
        e9:84:26:7d:10:fd:cd:df:f2:83:3f:ab:e0:a8:e6:7d:81:e2:
        b4:1a:6f:c1:58:ca:91:ba
-----BEGIN CERTIFICATE REQUEST-----
MIIEWTCCAkECAQAwFDESMBAGA1UEAwwJbG9jYWxob3N0MIICIjANBgkqhkiG9w0B
AQEFAAOCAg8AMIICCgKCAgEAlzDf7Y+RLVHfYN0uZGMb7vJ9jQ7+qjj/xRiVN8nN
C2gDajS7kHn+/cgOb//RDzXvfkRVtCsODe6sgQs2BiImS6BH7wA58Qt/d8GppFof
D0erszuLZz4on0xrkBKCHKpXiQgIhi3v+5KwTjBwK3LSE9MlOihoQqxhj6GV1ILt
uwY3ZWdOhDY4oGH40LPiLbaeKyqT+3gYtn5MEFzEI2vy6aUpQdPxUnphpJPPwTK2
wbuoHoB7XPeqoZQ+DAsjDltTsnpQ0G5VE6B6DbPwXrKb9PRhUpZB8zUMPXiWPOH9
9MyICUXYUtGiHutGy4xB08Bji6X4h/JXOELQoyinKQ9L3H39oTENVEeBC8bGhMSu
+/YGQ4ISXiXZc6AXjw/NC6phRVGEtJwqvsMw3IoMS+pPN5fwhhrkeYG8jKn3YhJu
CoSrqpvCXwOW24+B0QhnYYnkO7YV1s4hvh0yJe/XQwuC4+03pSka8ftIqzTpQVOk
1nO5sdV4gcIskk99s/zR3GkasgSQtoCt8mUg29EaFfRpoQtSZaNhXJ1gFzl6OhI6
PSDs8N8dvRZFHIpqJhC3BNoqj3gqzLiN8o6oNH8cd3lUxOu1CJj/UKddLnStmjxy
x5qlAqKOvY0RR87nLel3KT+EiSHxoMtmllJVogoAIfrw8PIkQ3eUColMje+dxHd/
sG8CAwEAAaAAMA0GCSqGSIb3DQEBCwUAA4ICAQCEc5go5ZCYZ0vILxGFI2bV+QJY
rqgk4cEixV4DVZIcHPdrrQx+uN/FDksyBeEsAwE+YuiWjfm7uY6wpGLphUPiGUrH
ZyF+KTr7m4ZvdxEhWmARR3t4QhPUzFeuLCOZx7hN/CZ7iGoqjDnaspkPqpkZf/Fw
B/CymKknHe3IdvPxYFLhAsUfPupuHoQy1nEnL2Kua9v1VsM7GjpTwOFS1vZn2/wm
IpmE06UV1X7HRr5rWCtVGIvjOPl7G44pSk0lMTB/I51ltQEHcauBqvmC6JG2J1G+
A04OcnYzqJw+0xvhFgKNnSBgKS9mf4IDZLtjTeKjwCnHYnbaYXteHpN3/EDySP96
reb7suIPWLmdGS42EWaQgC+5NXJ8OtdAudi7mBObAbcNhil+9O0r8NfuyEDemBNZ
uuTs28pCtEBtlz0m7Z++KK5ouNumlGi1LqwDpW/wnfSoS5sVFWYY2DiPp8CxRyHs
hAetLeDm0ydzZOjGE8qSuK+v/SwC6DFA4qZ5F+ERIBE1OOd1HxVdpThsaodyT31k
MikEN0A4AE5TvBgjSRPniMq2jodptoOodruR+ny7J54faKkIH06QTSW3EgkEwuzr
6E+LlwOq/4n3cp964QZSmGlfKYFwrgk/1gsr/bB/aWPUdxbphCZ9EP3N3/KDP6vg
qOZ9geK0Gm/BWMqRug==
-----END CERTIFICATE REQUEST-----
